; Function Attrs: mustprogress uwtable
define hidden noundef zeroext i1 @_ZN11OpenImageIO6v3_1_08webp_pvt9WebpInput20read_native_scanlineEiiiiPv(ptr noundef nonnull align 8 dereferenceable(352) %0, i32 noundef %1, i32 %2, i32 noundef %3, i32 %4, ptr noundef writeonly captures(none) %5) unnamed_addr #5 align 2 personality ptr @__gxx_personality_v0 {
  tail call void @_ZNK11OpenImageIO6v3_1_010ImageInput4lockEv(ptr noundef nonnull align 8 dereferenceable(184) %0)
  %7 = invoke noundef zeroext i1 @_ZN11OpenImageIO6v3_1_08webp_pvt9WebpInput13read_subimageEib(ptr noundef nonnull align 8 dereferenceable(352) %0, i32 noundef %1, i1 noundef zeroext true)
          to label %8 unwind label %9

8:                                                ; preds = %6
  br i1 %7, label %14, label %26

9:                                                ; preds = %6
  %10 = landingpad { ptr, i32 }
          cleanup
  invoke void @_ZNK11OpenImageIO6v3_1_010ImageInput6unlockEv(ptr noundef nonnull align 8 dereferenceable(184) %0)
          to label %_ZNSt10lock_guardIRKN11OpenImageIO6v3_1_010ImageInputEED2Ev.exit unwind label %11

11:                                               ; preds = %9
  %12 = landingpad { ptr, i32 }
          catch ptr null
  %13 = extractvalue { ptr, i32 } %12, 0
  tail call void @__clang_call_terminate(ptr %13) #27
  unreachable

_ZNSt10lock_guardIRKN11OpenImageIO6v3_1_010ImageInputEED2Ev.exit: ; preds = %9
  resume { ptr, i32 } %10

14:                                               ; preds = %8
  %15 = icmp sgt i32 %3, -1
  %16 = getelementptr inbounds nuw i8, ptr %0, i64 24
  %17 = load i32, ptr %16, align 8
  %.not = icmp slt i32 %3, %17
  %or.cond = select i1 %15, i1 %.not, i1 false
  br i1 %or.cond, label %18, label %26

18:                                               ; preds = %14
  %19 = getelementptr inbounds nuw i8, ptr %0, i64 224
  %20 = load ptr, ptr %19, align 8, !tbaa !79
  %21 = zext nneg i32 %3 to i64
  %22 = getelementptr inbounds nuw i8, ptr %0, i64 240
  %23 = load i64, ptr %22, align 8, !tbaa !83
  %24 = mul nsw i64 %23, %21
  %25 = getelementptr inbounds i8, ptr %20, i64 %24
  tail call void @llvm.memcpy.p0.p0.i64(ptr align 1 %5, ptr align 1 %25, i64 %23, i1 false)
  br label %26

26:                                               ; preds = %14, %8, %18
  %.0 = phi i1 [ true, %18 ], [ false, %8 ], [ false, %14 ]
  invoke void @_ZNK11OpenImageIO6v3_1_010ImageInput6unlockEv(ptr noundef nonnull align 8 dereferenceable(184) %0)
          to label %_ZNSt10lock_guardIRKN11OpenImageIO6v3_1_010ImageInputEED2Ev.exit10 unwind label %27

27:                                               ; preds = %26
  %28 = landingpad { ptr, i32 }
          catch ptr null
  %29 = extractvalue { ptr, i32 } %28, 0
  tail call void @__clang_call_terminate(ptr %29) #27
  unreachable

_ZNSt10lock_guardIRKN11OpenImageIO6v3_1_010ImageInputEED2Ev.exit10: ; preds = %26
  ret i1 %.0
}